target datalayout = "e-m:e-p270:32:32-p271:32:32-p272:64:64-i64:64-i128:128-f80:128-n8:16:32:64-S128"
target triple = "x86_64-pc-linux-gnu"

%struct._object = type { %union.anon, ptr }
%union.anon = type { i64 }
%struct.anon = type { i32, i32 }

@PyExc_ValueError = external global ptr, align 8
@_Py_NoneStruct = external global %struct._object, align 8
@.str.55 = private unnamed_addr constant [11 x i8] c"argument 2\00", align 1
@interp_call.kwlist = internal global [6 x ptr] [ptr @.str.33, ptr @.str.69, ptr @.str.70, ptr @.str.71, ptr @.str.34, ptr null], align 16
@.str.72 = private unnamed_addr constant [27 x i8] c"OO|OO$p:_interpreters.call\00", align 1
@.str.73 = private unnamed_addr constant [15 x i8] c"make a call in\00", align 1
@.str.74 = private unnamed_addr constant [20 x i8] c"got unexpected args\00", align 1
@.str.75 = private unnamed_addr constant [22 x i8] c"got unexpected kwargs\00", align 1
@.str.76 = private unnamed_addr constant [19 x i8] c"_interpreters.call\00", align 1
@.str.77 = private unnamed_addr constant [11 x i8] c"a function\00", align 1

; Function Attrs: alwaysinline nounwind uwtable
define internal i32 @_Py_IsImmortal(ptr noundef %0) #4 {
  %2 = alloca ptr, align 8
  store ptr %0, ptr %2, align 8, !tbaa !3
  %3 = load ptr, ptr %2, align 8, !tbaa !3
  %4 = getelementptr inbounds nuw %struct._object, ptr %3, i32 0, i32 0
  %5 = getelementptr inbounds nuw %struct.anon, ptr %4, i32 0, i32 0
  %6 = load i32, ptr %5, align 8, !tbaa !38
  %7 = icmp slt i32 %6, 0
  %8 = zext i1 %7 to i32
  ret i32 %8
}

; Function Attrs: alwaysinline nounwind uwtable
define internal void @Py_DECREF(ptr noundef %0) #4 {
  %2 = alloca ptr, align 8
  store ptr %0, ptr %2, align 8, !tbaa !3
  %3 = load ptr, ptr %2, align 8, !tbaa !3
  %4 = call i32 @_Py_IsImmortal(ptr noundef %3)
  %5 = icmp ne i32 %4, 0
  br i1 %5, label %6, label %7

6:                                                ; preds = %1
  br label %16

7:                                                ; preds = %1
  %8 = load ptr, ptr %2, align 8, !tbaa !3
  %9 = getelementptr inbounds nuw %struct._object, ptr %8, i32 0, i32 0
  %10 = getelementptr inbounds nuw %struct.anon, ptr %9, i32 0, i32 0
  %11 = load i32, ptr %10, align 8, !tbaa !38
  %12 = add i32 %11, -1
  store i32 %12, ptr %10, align 8, !tbaa !38
  %13 = icmp eq i32 %12, 0
  br i1 %13, label %14, label %16

14:                                               ; preds = %7
  %15 = load ptr, ptr %2, align 8, !tbaa !3
  call void @_Py_Dealloc(ptr noundef %15)
  br label %16

16:                                               ; preds = %6, %14, %7
  ret void
}

; Function Attrs: nounwind uwtable
define internal ptr @interp_call(ptr noundef %0, ptr noundef %1, ptr noundef %2) #0 {
  %4 = alloca ptr, align 8
  %5 = alloca ptr, align 8
  %6 = alloca ptr, align 8
  %7 = alloca ptr, align 8
  %8 = alloca ptr, align 8
  %9 = alloca ptr, align 8
  %10 = alloca ptr, align 8
  %11 = alloca ptr, align 8
  %12 = alloca i32, align 4
  %13 = alloca i32, align 4
  %14 = alloca i32, align 4
  %15 = alloca ptr, align 8
  %16 = alloca ptr, align 8
  %17 = alloca ptr, align 8
  %18 = alloca i32, align 4
  store ptr %0, ptr %5, align 8, !tbaa !3
  store ptr %1, ptr %6, align 8, !tbaa !3
  store ptr %2, ptr %7, align 8, !tbaa !3
  call void @llvm.lifetime.start.p0(i64 8, ptr %8) #8
  call void @llvm.lifetime.start.p0(i64 8, ptr %9) #8
  call void @llvm.lifetime.start.p0(i64 8, ptr %10) #8
  store ptr null, ptr %10, align 8, !tbaa !3
  call void @llvm.lifetime.start.p0(i64 8, ptr %11) #8
  store ptr null, ptr %11, align 8, !tbaa !3
  call void @llvm.lifetime.start.p0(i64 4, ptr %12) #8
  store i32 0, ptr %12, align 4, !tbaa !11
  %19 = load ptr, ptr %6, align 8, !tbaa !3
  %20 = load ptr, ptr %7, align 8, !tbaa !3
  %21 = call i32 (ptr, ptr, ptr, ptr, ...) @PyArg_ParseTupleAndKeywords(ptr noundef %19, ptr noundef %20, ptr noundef @.str.72, ptr noundef @interp_call.kwlist, ptr noundef %8, ptr noundef %9, ptr noundef %10, ptr noundef %11, ptr noundef %12)
  %22 = icmp ne i32 %21, 0
  br i1 %22, label %24, label %23

23:                                               ; preds = %3
  store ptr null, ptr %4, align 8
  store i32 1, ptr %13, align 4
  br label %62

24:                                               ; preds = %3
  call void @llvm.lifetime.start.p0(i64 4, ptr %14) #8
  store i32 1, ptr %14, align 4, !tbaa !11
  call void @llvm.lifetime.start.p0(i64 8, ptr %15) #8
  %25 = load ptr, ptr %8, align 8, !tbaa !3
  %26 = load i32, ptr %12, align 4, !tbaa !11
  %27 = load i32, ptr %14, align 4, !tbaa !11
  %28 = call ptr @resolve_interp(ptr noundef %25, i32 noundef %26, i32 noundef %27, ptr noundef @.str.73)
  store ptr %28, ptr %15, align 8, !tbaa !15
  %29 = load ptr, ptr %15, align 8, !tbaa !15
  %30 = icmp eq ptr %29, null
  br i1 %30, label %31, label %32

31:                                               ; preds = %24
  store ptr null, ptr %4, align 8
  store i32 1, ptr %13, align 4
  br label %61

32:                                               ; preds = %24
  %33 = load ptr, ptr %10, align 8, !tbaa !3
  %34 = icmp ne ptr %33, null
  br i1 %34, label %35, label %37

35:                                               ; preds = %32
  %36 = load ptr, ptr @PyExc_ValueError, align 8, !tbaa !3
  call void @PyErr_SetString(ptr noundef %36, ptr noundef @.str.74)
  store ptr null, ptr %4, align 8
  store i32 1, ptr %13, align 4
  br label %61

37:                                               ; preds = %32
  %38 = load ptr, ptr %11, align 8, !tbaa !3
  %39 = icmp ne ptr %38, null
  br i1 %39, label %40, label %42

40:                                               ; preds = %37
  %41 = load ptr, ptr @PyExc_ValueError, align 8, !tbaa !3
  call void @PyErr_SetString(ptr noundef %41, ptr noundef @.str.75)
  store ptr null, ptr %4, align 8
  store i32 1, ptr %13, align 4
  br label %61

42:                                               ; preds = %37
  call void @llvm.lifetime.start.p0(i64 8, ptr %16) #8
  %43 = load ptr, ptr %9, align 8, !tbaa !3
  %44 = call ptr @convert_code_arg(ptr noundef %43, ptr noundef @.str.76, ptr noundef @.str.55, ptr noundef @.str.77)
  store ptr %44, ptr %16, align 8, !tbaa !3
  %45 = load ptr, ptr %16, align 8, !tbaa !3
  %46 = icmp eq ptr %45, null
  br i1 %46, label %47, label %48

47:                                               ; preds = %42
  store ptr null, ptr %4, align 8
  store i32 1, ptr %13, align 4
  br label %60

48:                                               ; preds = %42
  call void @llvm.lifetime.start.p0(i64 8, ptr %17) #8
  store ptr null, ptr %17, align 8, !tbaa !3
  call void @llvm.lifetime.start.p0(i64 4, ptr %18) #8
  %49 = load ptr, ptr %5, align 8, !tbaa !3
  %50 = load ptr, ptr %15, align 8, !tbaa !15
  %51 = load ptr, ptr %16, align 8, !tbaa !3
  %52 = call i32 @_interp_exec(ptr noundef %49, ptr noundef %50, ptr noundef %51, ptr noundef null, ptr noundef %17)
  store i32 %52, ptr %18, align 4, !tbaa !11
  %53 = load ptr, ptr %16, align 8, !tbaa !3
  call void @Py_DECREF(ptr noundef %53)
  %54 = load i32, ptr %18, align 4, !tbaa !11
  %55 = icmp slt i32 %54, 0
  br i1 %55, label %56, label %58

56:                                               ; preds = %48
  %57 = load ptr, ptr %17, align 8, !tbaa !3
  store ptr %57, ptr %4, align 8
  store i32 1, ptr %13, align 4
  br label %59

58:                                               ; preds = %48
  store ptr @_Py_NoneStruct, ptr %4, align 8
  store i32 1, ptr %13, align 4
  br label %59

59:                                               ; preds = %58, %56
  call void @llvm.lifetime.end.p0(i64 4, ptr %18) #8
  call void @llvm.lifetime.end.p0(i64 8, ptr %17) #8
  br label %60

60:                                               ; preds = %59, %47
  call void @llvm.lifetime.end.p0(i64 8, ptr %16) #8
  br label %61

61:                                               ; preds = %60, %40, %35, %31
  call void @llvm.lifetime.end.p0(i64 8, ptr %15) #8
  call void @llvm.lifetime.end.p0(i64 4, ptr %14) #8
  br label %62

62:                                               ; preds = %61, %23
  call void @llvm.lifetime.end.p0(i64 4, ptr %12) #8
  call void @llvm.lifetime.end.p0(i64 8, ptr %11) #8
  call void @llvm.lifetime.end.p0(i64 8, ptr %10) #8
  call void @llvm.lifetime.end.p0(i64 8, ptr %9) #8
  call void @llvm.lifetime.end.p0(i64 8, ptr %8) #8
  %63 = load ptr, ptr %4, align 8
  ret ptr %63
}