; Function Attrs: nounwind uwtable
define internal ptr @interp_call(ptr readnone captures(none) %0, ptr noundef %1, ptr noundef %2) #0 {
  %4 = alloca ptr, align 8
  %5 = alloca ptr, align 8
  %6 = alloca ptr, align 8
  %7 = alloca ptr, align 8
  %8 = alloca i32, align 4
  %9 = alloca ptr, align 8
  call void @llvm.lifetime.start.p0(i64 8, ptr nonnull %4) #7
  call void @llvm.lifetime.start.p0(i64 8, ptr nonnull %5) #7
  call void @llvm.lifetime.start.p0(i64 8, ptr nonnull %6) #7
  store ptr null, ptr %6, align 8, !tbaa !15
  call void @llvm.lifetime.start.p0(i64 8, ptr nonnull %7) #7
  store ptr null, ptr %7, align 8, !tbaa !15
  call void @llvm.lifetime.start.p0(i64 4, ptr nonnull %8) #7
  store i32 0, ptr %8, align 4, !tbaa !14
  %10 = call i32 (ptr, ptr, ptr, ptr, ...) @PyArg_ParseTupleAndKeywords(ptr noundef %1, ptr noundef %2, ptr noundef nonnull @.str.72, ptr noundef nonnull @interp_call.kwlist, ptr noundef nonnull %4, ptr noundef nonnull %5, ptr noundef nonnull %6, ptr noundef nonnull %7, ptr noundef nonnull %8) #7
  %.not = icmp eq i32 %10, 0
  br i1 %.not, label %37, label %11

11:                                               ; preds = %3
  %12 = load ptr, ptr %4, align 8, !tbaa !15
  %13 = load i32, ptr %8, align 4, !tbaa !14
  %14 = call fastcc ptr @resolve_interp(ptr noundef %12, i32 noundef %13, i32 noundef 1, ptr noundef nonnull @.str.73)
  %15 = icmp eq ptr %14, null
  br i1 %15, label %37, label %16

16:                                               ; preds = %11
  %17 = load ptr, ptr %6, align 8, !tbaa !15
  %.not12 = icmp eq ptr %17, null
  br i1 %.not12, label %20, label %18

18:                                               ; preds = %16
  %19 = load ptr, ptr @PyExc_ValueError, align 8, !tbaa !15
  call void @PyErr_SetString(ptr noundef %19, ptr noundef nonnull @.str.74) #7
  br label %37

20:                                               ; preds = %16
  %21 = load ptr, ptr %7, align 8, !tbaa !15
  %.not13 = icmp eq ptr %21, null
  br i1 %.not13, label %24, label %22

22:                                               ; preds = %20
  %23 = load ptr, ptr @PyExc_ValueError, align 8, !tbaa !15
  call void @PyErr_SetString(ptr noundef %23, ptr noundef nonnull @.str.75) #7
  br label %37

24:                                               ; preds = %20
  %25 = load ptr, ptr %5, align 8, !tbaa !15
  %26 = call fastcc ptr @convert_code_arg(ptr noundef %25, ptr noundef nonnull @.str.76, ptr noundef nonnull @.str.77)
  %27 = icmp eq ptr %26, null
  br i1 %27, label %37, label %28

28:                                               ; preds = %24
  call void @llvm.lifetime.start.p0(i64 8, ptr nonnull %9) #7
  store ptr null, ptr %9, align 8, !tbaa !15
  %29 = call fastcc i32 @_interp_exec(ptr noundef %14, ptr noundef nonnull %26, ptr noundef null, ptr noundef %9)
  %30 = load i32, ptr %26, align 8, !tbaa !11
  %.not.i = icmp sgt i32 %30, -1
  br i1 %.not.i, label %31, label %Py_DECREF.exit

31:                                               ; preds = %28
  %32 = add nsw i32 %30, -1
  store i32 %32, ptr %26, align 8, !tbaa !11
  %33 = icmp eq i32 %32, 0
  br i1 %33, label %34, label %Py_DECREF.exit

34:                                               ; preds = %31
  call void @_Py_Dealloc(ptr noundef nonnull %26) #7
  br label %Py_DECREF.exit

Py_DECREF.exit:                                   ; preds = %28, %31, %34
  %35 = icmp slt i32 %29, 0
  %36 = load ptr, ptr %9, align 8
  %.3 = select i1 %35, ptr %36, ptr @_Py_NoneStruct
  call void @llvm.lifetime.end.p0(i64 8, ptr nonnull %9) #7
  br label %37

37:                                               ; preds = %18, %22, %11, %24, %Py_DECREF.exit, %3
  %.0 = phi ptr [ null, %3 ], [ null, %18 ], [ null, %22 ], [ null, %11 ], [ %.3, %Py_DECREF.exit ], [ null, %24 ]
  call void @llvm.lifetime.end.p0(i64 4, ptr nonnull %8) #7
  call void @llvm.lifetime.end.p0(i64 8, ptr nonnull %7) #7
  call void @llvm.lifetime.end.p0(i64 8, ptr nonnull %6) #7
  call void @llvm.lifetime.end.p0(i64 8, ptr nonnull %5) #7
  call void @llvm.lifetime.end.p0(i64 8, ptr nonnull %4) #7
  ret ptr %.0
}